; Function Attrs: mustprogress nounwind uwtable
define dso_local void @_ZNK4llvm10AsmPrinter11emitULEB128EmPKcj(ptr nocapture noundef nonnull readonly align 8 dereferenceable(785) %0, i64 noundef %1, ptr noundef %2, i32 noundef %3) local_unnamed_addr #0 align 2 {
  %5 = alloca %"class.llvm::Twine", align 8
  %6 = getelementptr inbounds nuw i8, ptr %0, i64 312
  %7 = load i8, ptr %6, align 8
  %8 = trunc i8 %7 to i1
  %9 = icmp ne ptr %2, null
  %or.cond = and i1 %9, %8
  br i1 %or.cond, label %10, label %20

10:                                               ; preds = %4
  %11 = getelementptr inbounds nuw i8, ptr %0, i64 80
  %12 = load ptr, ptr %11, align 8
  %13 = getelementptr inbounds nuw i8, ptr %5, i64 32
  %14 = getelementptr inbounds nuw i8, ptr %5, i64 33
  store i8 1, ptr %14, align 1
  %15 = load i8, ptr %2, align 1
  %.not.i = icmp eq i8 %15, 0
  br i1 %.not.i, label %_ZN4llvm5TwineC2EPKc.exit, label %16

16:                                               ; preds = %10
  store ptr %2, ptr %5, align 8
  br label %_ZN4llvm5TwineC2EPKc.exit

_ZN4llvm5TwineC2EPKc.exit:                        ; preds = %10, %16
  %storemerge.i = phi i8 [ 3, %16 ], [ 1, %10 ]
  store i8 %storemerge.i, ptr %13, align 8
  %17 = load ptr, ptr %12, align 8
  %18 = getelementptr inbounds i8, ptr %17, i64 120
  %19 = load ptr, ptr %18, align 8
  call void %19(ptr noundef nonnull align 8 dereferenceable(288) %12, ptr noundef nonnull align 8 dereferenceable(34) %5, i1 noundef zeroext true) #33
  br label %20

20:                                               ; preds = %_ZN4llvm5TwineC2EPKc.exit, %4
  %21 = getelementptr inbounds nuw i8, ptr %0, i64 80
  %22 = load ptr, ptr %21, align 8
  %23 = call noundef i32 @_ZN4llvm10MCStreamer19emitULEB128IntValueEmj(ptr noundef nonnull align 8 dereferenceable(288) %22, i64 noundef %1, i32 noundef %3) #33
  ret void
}